target datalayout = "e-m:e-p270:32:32-p271:32:32-p272:64:64-i64:64-i128:128-f80:128-n8:16:32:64-S128"
target triple = "x86_64-pc-linux-gnu"

%"class.icu_77::UObject" = type { ptr }
%"class.icu_77::Locale" = type <{ %"class.icu_77::UObject", [12 x i8], [6 x i8], [4 x i8], [2 x i8], i32, [4 x i8], ptr, [157 x i8], [3 x i8], ptr, i8, [7 x i8] }>
%"class.icu_77::RelativeDateTimeFormatter" = type { %"class.icu_77::UObject", ptr, ptr, ptr, i32, i32, ptr, %"class.icu_77::Locale" }

@_ZTVN6icu_777UObjectE = available_externally unnamed_addr constant { [5 x ptr] } { [5 x ptr] [ptr null, ptr @_ZTIN6icu_777UObjectE, ptr @_ZN6icu_777UObjectD1Ev, ptr @_ZN6icu_777UObjectD0Ev, ptr @_ZNK6icu_777UObject17getDynamicClassIDEv] }, align 8

; Function Attrs: inlinehint mustprogress nounwind uwtable
define linkonce_odr void @_ZN6icu_777UObjectC2ERKS0_(ptr noundef nonnull align 8 dereferenceable(8) %0, ptr noundef nonnull align 8 dereferenceable(8) %1) unnamed_addr #2 comdat align 2 {
  %3 = alloca ptr, align 8
  %4 = alloca ptr, align 8
  store ptr %0, ptr %3, align 8, !tbaa !108
  store ptr %1, ptr %4, align 8, !tbaa !108
  %5 = load ptr, ptr %3, align 8
  store ptr getelementptr inbounds inrange(-16, 24) ({ [5 x ptr] }, ptr @_ZTVN6icu_777UObjectE, i32 0, i32 0, i32 2), ptr %5, align 8, !tbaa !25
  ret void
}

; Function Attrs: mustprogress uwtable
define void @_ZN6icu_7725RelativeDateTimeFormatterC2ERKS0_(ptr noundef nonnull align 8 dereferenceable(272) %0, ptr noundef nonnull align 8 dereferenceable(272) %1) unnamed_addr #1 align 2 personality ptr @__gxx_personality_v0 {
  %3 = alloca ptr, align 8
  %4 = alloca ptr, align 8
  %5 = alloca ptr, align 8
  %6 = alloca i32, align 4
  store ptr %0, ptr %3, align 8, !tbaa !94
  store ptr %1, ptr %4, align 8, !tbaa !94
  %7 = load ptr, ptr %3, align 8
  %8 = load ptr, ptr %4, align 8, !tbaa !94
  call void @_ZN6icu_777UObjectC2ERKS0_(ptr noundef nonnull align 8 dereferenceable(8) %7, ptr noundef nonnull align 8 dereferenceable(8) %8) #12
  store ptr getelementptr inbounds inrange(-16, 24) ({ [5 x ptr] }, ptr @_ZTVN6icu_7725RelativeDateTimeFormatterE, i32 0, i32 0, i32 2), ptr %7, align 8, !tbaa !25
  %9 = getelementptr inbounds nuw %"class.icu_77::RelativeDateTimeFormatter", ptr %7, i32 0, i32 1
  %10 = load ptr, ptr %4, align 8, !tbaa !94
  %11 = getelementptr inbounds nuw %"class.icu_77::RelativeDateTimeFormatter", ptr %10, i32 0, i32 1
  %12 = load ptr, ptr %11, align 8, !tbaa !96
  store ptr %12, ptr %9, align 8, !tbaa !96
  %13 = getelementptr inbounds nuw %"class.icu_77::RelativeDateTimeFormatter", ptr %7, i32 0, i32 2
  %14 = load ptr, ptr %4, align 8, !tbaa !94
  %15 = getelementptr inbounds nuw %"class.icu_77::RelativeDateTimeFormatter", ptr %14, i32 0, i32 2
  %16 = load ptr, ptr %15, align 8, !tbaa !103
  store ptr %16, ptr %13, align 8, !tbaa !103
  %17 = getelementptr inbounds nuw %"class.icu_77::RelativeDateTimeFormatter", ptr %7, i32 0, i32 3
  %18 = load ptr, ptr %4, align 8, !tbaa !94
  %19 = getelementptr inbounds nuw %"class.icu_77::RelativeDateTimeFormatter", ptr %18, i32 0, i32 3
  %20 = load ptr, ptr %19, align 8, !tbaa !104
  store ptr %20, ptr %17, align 8, !tbaa !104
  %21 = getelementptr inbounds nuw %"class.icu_77::RelativeDateTimeFormatter", ptr %7, i32 0, i32 4
  %22 = load ptr, ptr %4, align 8, !tbaa !94
  %23 = getelementptr inbounds nuw %"class.icu_77::RelativeDateTimeFormatter", ptr %22, i32 0, i32 4
  %24 = load i32, ptr %23, align 8, !tbaa !105
  store i32 %24, ptr %21, align 8, !tbaa !105
  %25 = getelementptr inbounds nuw %"class.icu_77::RelativeDateTimeFormatter", ptr %7, i32 0, i32 5
  %26 = load ptr, ptr %4, align 8, !tbaa !94
  %27 = getelementptr inbounds nuw %"class.icu_77::RelativeDateTimeFormatter", ptr %26, i32 0, i32 5
  %28 = load i32, ptr %27, align 4, !tbaa !106
  store i32 %28, ptr %25, align 4, !tbaa !106
  %29 = getelementptr inbounds nuw %"class.icu_77::RelativeDateTimeFormatter", ptr %7, i32 0, i32 6
  %30 = load ptr, ptr %4, align 8, !tbaa !94
  %31 = getelementptr inbounds nuw %"class.icu_77::RelativeDateTimeFormatter", ptr %30, i32 0, i32 6
  %32 = load ptr, ptr %31, align 8, !tbaa !107
  store ptr %32, ptr %29, align 8, !tbaa !107
  %33 = getelementptr inbounds nuw %"class.icu_77::RelativeDateTimeFormatter", ptr %7, i32 0, i32 7
  %34 = load ptr, ptr %4, align 8, !tbaa !94
  %35 = getelementptr inbounds nuw %"class.icu_77::RelativeDateTimeFormatter", ptr %34, i32 0, i32 7
  invoke void @_ZN6icu_776LocaleC1ERKS0_(ptr noundef nonnull align 8 dereferenceable(217) %33, ptr noundef nonnull align 8 dereferenceable(217) %35)
          to label %36 unwind label %53

36:                                               ; preds = %2
  %37 = getelementptr inbounds nuw %"class.icu_77::RelativeDateTimeFormatter", ptr %7, i32 0, i32 1
  %38 = load ptr, ptr %37, align 8, !tbaa !96
  invoke void @_ZNK6icu_7712SharedObject6addRefEv(ptr noundef nonnull align 8 dereferenceable(24) %38)
          to label %39 unwind label %57

39:                                               ; preds = %36
  %40 = getelementptr inbounds nuw %"class.icu_77::RelativeDateTimeFormatter", ptr %7, i32 0, i32 2
  %41 = load ptr, ptr %40, align 8, !tbaa !103
  invoke void @_ZNK6icu_7712SharedObject6addRefEv(ptr noundef nonnull align 8 dereferenceable(24) %41)
          to label %42 unwind label %57

42:                                               ; preds = %39
  %43 = getelementptr inbounds nuw %"class.icu_77::RelativeDateTimeFormatter", ptr %7, i32 0, i32 3
  %44 = load ptr, ptr %43, align 8, !tbaa !104
  invoke void @_ZNK6icu_7712SharedObject6addRefEv(ptr noundef nonnull align 8 dereferenceable(24) %44)
          to label %45 unwind label %57

45:                                               ; preds = %42
  %46 = getelementptr inbounds nuw %"class.icu_77::RelativeDateTimeFormatter", ptr %7, i32 0, i32 6
  %47 = load ptr, ptr %46, align 8, !tbaa !107
  %48 = icmp ne ptr %47, null
  br i1 %48, label %49, label %61

49:                                               ; preds = %45
  %50 = getelementptr inbounds nuw %"class.icu_77::RelativeDateTimeFormatter", ptr %7, i32 0, i32 6
  %51 = load ptr, ptr %50, align 8, !tbaa !107
  invoke void @_ZNK6icu_7712SharedObject6addRefEv(ptr noundef nonnull align 8 dereferenceable(24) %51)
          to label %52 unwind label %57

52:                                               ; preds = %49
  br label %61

53:                                               ; preds = %2
  %54 = landingpad { ptr, i32 }
          cleanup
  %55 = extractvalue { ptr, i32 } %54, 0
  store ptr %55, ptr %5, align 8
  %56 = extractvalue { ptr, i32 } %54, 1
  store i32 %56, ptr %6, align 4
  br label %62

57:                                               ; preds = %49, %42, %39, %36
  %58 = landingpad { ptr, i32 }
          cleanup
  %59 = extractvalue { ptr, i32 } %58, 0
  store ptr %59, ptr %5, align 8
  %60 = extractvalue { ptr, i32 } %58, 1
  store i32 %60, ptr %6, align 4
  call void @_ZN6icu_776LocaleD1Ev(ptr noundef nonnull align 8 dereferenceable(217) %33) #12
  br label %62

61:                                               ; preds = %52, %45
  ret void

62:                                               ; preds = %57, %53
  call void @_ZN6icu_777UObjectD2Ev(ptr noundef nonnull align 8 dereferenceable(8) %7) #12
  br label %63

63:                                               ; preds = %62
  %64 = load ptr, ptr %5, align 8
  %65 = load i32, ptr %6, align 4
  %66 = insertvalue { ptr, i32 } poison, ptr %64, 0
  %67 = insertvalue { ptr, i32 } %66, i32 %65, 1
  resume { ptr, i32 } %67
}