; Function Attrs: mustprogress uwtable
define void @_ZN6icu_7725RelativeDateTimeFormatterC2ERKS0_(ptr noundef nonnull align 8 dereferenceable(272) initializes((0, 48)) %0, ptr noundef nonnull align 8 dereferenceable(272) %1) unnamed_addr #1 align 2 personality ptr @__gxx_personality_v0 {
  store ptr getelementptr inbounds nuw inrange(-16, 24) (i8, ptr @_ZTVN6icu_7725RelativeDateTimeFormatterE, i64 16), ptr %0, align 8, !tbaa !15
  %3 = getelementptr inbounds nuw i8, ptr %0, i64 8
  %4 = getelementptr inbounds nuw i8, ptr %1, i64 8
  %5 = load ptr, ptr %4, align 8, !tbaa !87
  store ptr %5, ptr %3, align 8, !tbaa !87
  %6 = getelementptr inbounds nuw i8, ptr %0, i64 16
  %7 = getelementptr inbounds nuw i8, ptr %1, i64 16
  %8 = load ptr, ptr %7, align 8, !tbaa !88
  store ptr %8, ptr %6, align 8, !tbaa !88
  %9 = getelementptr inbounds nuw i8, ptr %0, i64 24
  %10 = getelementptr inbounds nuw i8, ptr %1, i64 24
  %11 = load ptr, ptr %10, align 8, !tbaa !89
  store ptr %11, ptr %9, align 8, !tbaa !89
  %12 = getelementptr inbounds nuw i8, ptr %0, i64 32
  %13 = getelementptr inbounds nuw i8, ptr %1, i64 32
  %14 = load i32, ptr %13, align 8, !tbaa !86
  store i32 %14, ptr %12, align 8, !tbaa !86
  %15 = getelementptr inbounds nuw i8, ptr %0, i64 36
  %16 = getelementptr inbounds nuw i8, ptr %1, i64 36
  %17 = load i32, ptr %16, align 4, !tbaa !72
  store i32 %17, ptr %15, align 4, !tbaa !72
  %18 = getelementptr inbounds nuw i8, ptr %0, i64 40
  %19 = getelementptr inbounds nuw i8, ptr %1, i64 40
  %20 = load ptr, ptr %19, align 8, !tbaa !79
  store ptr %20, ptr %18, align 8, !tbaa !79
  %21 = getelementptr inbounds nuw i8, ptr %0, i64 48
  %22 = getelementptr inbounds nuw i8, ptr %1, i64 48
  invoke void @_ZN6icu_776LocaleC1ERKS0_(ptr noundef nonnull align 8 dereferenceable(217) %21, ptr noundef nonnull align 8 dereferenceable(217) %22)
          to label %23 unwind label %32

23:                                               ; preds = %2
  %24 = load ptr, ptr %3, align 8, !tbaa !87
  invoke void @_ZNK6icu_7712SharedObject6addRefEv(ptr noundef nonnull align 8 dereferenceable(24) %24)
          to label %25 unwind label %34

25:                                               ; preds = %23
  %26 = load ptr, ptr %6, align 8, !tbaa !88
  invoke void @_ZNK6icu_7712SharedObject6addRefEv(ptr noundef nonnull align 8 dereferenceable(24) %26)
          to label %27 unwind label %34

27:                                               ; preds = %25
  %28 = load ptr, ptr %9, align 8, !tbaa !89
  invoke void @_ZNK6icu_7712SharedObject6addRefEv(ptr noundef nonnull align 8 dereferenceable(24) %28)
          to label %29 unwind label %34

29:                                               ; preds = %27
  %30 = load ptr, ptr %18, align 8, !tbaa !79
  %.not = icmp eq ptr %30, null
  br i1 %.not, label %36, label %31

31:                                               ; preds = %29
  invoke void @_ZNK6icu_7712SharedObject6addRefEv(ptr noundef nonnull align 8 dereferenceable(24) %30)
          to label %36 unwind label %34

32:                                               ; preds = %2
  %33 = landingpad { ptr, i32 }
          cleanup
  br label %37

34:                                               ; preds = %31, %27, %25, %23
  %35 = landingpad { ptr, i32 }
          cleanup
  tail call void @_ZN6icu_776LocaleD1Ev(ptr noundef nonnull align 8 dereferenceable(217) %21) #20
  br label %37

36:                                               ; preds = %31, %29
  ret void

37:                                               ; preds = %34, %32
  %.pn = phi { ptr, i32 } [ %35, %34 ], [ %33, %32 ]
  tail call void @_ZN6icu_777UObjectD2Ev(ptr noundef nonnull align 8 dereferenceable(8) %0) #20
  resume { ptr, i32 } %.pn
}